; Function Attrs: mustprogress uwtable
define void @_ZNK32pxrInternal_v0_24__pxrReserved__15TfDiagnosticMgr11ErrorHelper4PostEPKcz(ptr noundef nonnull align 8 dereferenceable(64) %0, ptr noundef %1, ...) local_unnamed_addr #0 align 2 personality ptr @__gxx_personality_v0 {
  %3 = alloca %"class.std::any", align 8
  %4 = alloca [1 x %struct.__va_list_tag], align 16
  %5 = alloca %"class.std::__cxx11::basic_string", align 8
  call void @llvm.va_start.p0(ptr nonnull %4)
  call void @_ZN32pxrInternal_v0_24__pxrReserved__15TfVStringPrintfB5cxx11EPKcP13__va_list_tag(ptr dead_on_unwind nonnull writable sret(%"class.std::__cxx11::basic_string") align 8 %5, ptr noundef %1, ptr noundef nonnull %4)
  call void @llvm.lifetime.start.p0(i64 16, ptr nonnull %3)
  %6 = load atomic i64, ptr @_ZN32pxrInternal_v0_24__pxrReserved__11TfSingletonINS_15TfDiagnosticMgrEE9_instanceE seq_cst, align 8
  %.0.i.i.i.i = inttoptr i64 %6 to ptr
  %.not.i.i.i = icmp eq i64 %6, 0
  br i1 %.not.i.i.i, label %7, label %_ZN32pxrInternal_v0_24__pxrReserved__15TfDiagnosticMgr11GetInstanceEv.exit.i

7:                                                ; preds = %2
  %8 = invoke noundef ptr @_ZN32pxrInternal_v0_24__pxrReserved__11TfSingletonINS_15TfDiagnosticMgrEE15_CreateInstanceERSt6atomicIPS1_E(ptr noundef nonnull align 8 dereferenceable(8) @_ZN32pxrInternal_v0_24__pxrReserved__11TfSingletonINS_15TfDiagnosticMgrEE9_instanceE)
          to label %_ZN32pxrInternal_v0_24__pxrReserved__15TfDiagnosticMgr11GetInstanceEv.exit.i unwind label %21

_ZN32pxrInternal_v0_24__pxrReserved__15TfDiagnosticMgr11GetInstanceEv.exit.i: ; preds = %7, %2
  %.0.i.i.i = phi ptr [ %.0.i.i.i.i, %2 ], [ %8, %7 ]
  %9 = getelementptr inbounds nuw i8, ptr %0, i64 40
  %.sroa.0.0.copyload.i = load ptr, ptr %9, align 8
  %.sroa.2.0..sroa_idx.i = getelementptr inbounds nuw i8, ptr %0, i64 48
  %.sroa.2.0.copyload.i = load i32, ptr %.sroa.2.0..sroa_idx.i, align 8
  %10 = getelementptr inbounds nuw i8, ptr %0, i64 56
  %11 = load ptr, ptr %10, align 8
  call void @llvm.memset.p0.i64(ptr noundef nonnull align 8 dereferenceable(16) %3, i8 0, i64 16, i1 false)
  invoke void @_ZN32pxrInternal_v0_24__pxrReserved__15TfDiagnosticMgr9PostErrorENS_6TfEnumEPKcRKNS_13TfCallContextERKNSt7__cxx1112basic_stringIcSt11char_traitsIcESaIcEEESt3anyb(ptr noundef nonnull align 8 dereferenceable(481) %.0.i.i.i, ptr %.sroa.0.0.copyload.i, i32 %.sroa.2.0.copyload.i, ptr noundef %11, ptr noundef nonnull align 8 dereferenceable(64) %0, ptr noundef nonnull align 8 dereferenceable(32) %5, ptr noundef nonnull %3, i1 noundef zeroext false)
          to label %12 unwind label %18

12:                                               ; preds = %_ZN32pxrInternal_v0_24__pxrReserved__15TfDiagnosticMgr11GetInstanceEv.exit.i
  %13 = load ptr, ptr %3, align 8
  %.not.i.i3.i = icmp eq ptr %13, null
  br i1 %.not.i.i3.i, label %20, label %14

14:                                               ; preds = %12
  invoke void %13(i32 noundef 3, ptr noundef nonnull align 8 dereferenceable(16) %3, ptr noundef null)
          to label %20 unwind label %15

15:                                               ; preds = %14
  %16 = landingpad { ptr, i32 }
          catch ptr null
  %17 = extractvalue { ptr, i32 } %16, 0
  call void @__clang_call_terminate(ptr %17) #30
  unreachable

18:                                               ; preds = %_ZN32pxrInternal_v0_24__pxrReserved__15TfDiagnosticMgr11GetInstanceEv.exit.i
  %19 = landingpad { ptr, i32 }
          cleanup
  call void @_ZNSt3anyD2Ev(ptr noundef nonnull align 8 dereferenceable(16) %3) #23
  br label %.body

20:                                               ; preds = %14, %12
  call void @llvm.lifetime.end.p0(i64 16, ptr nonnull %3)
  call void @_ZNSt7__cxx1112basic_stringIcSt11char_traitsIcESaIcEED1Ev(ptr noundef nonnull align 8 dereferenceable(32) %5) #23
  call void @llvm.va_end.p0(ptr nonnull %4)
  ret void

21:                                               ; preds = %7
  %22 = landingpad { ptr, i32 }
          cleanup
  br label %.body

.body:                                            ; preds = %18, %21
  %eh.lpad-body = phi { ptr, i32 } [ %22, %21 ], [ %19, %18 ]
  call void @_ZNSt7__cxx1112basic_stringIcSt11char_traitsIcESaIcEED1Ev(ptr noundef nonnull align 8 dereferenceable(32) %5) #23
  resume { ptr, i32 } %eh.lpad-body
}